target datalayout = "e-m:e-p270:32:32-p271:32:32-p272:64:64-i64:64-i128:128-f80:128-n8:16:32:64-S128"
target triple = "x86_64-pc-linux-gnu"

%struct.mspack_system = type { ptr, ptr, ptr, ptr, ptr, ptr, ptr, ptr, ptr, ptr, ptr }
%struct.lzxd_stream = type { ptr, ptr, ptr, i64, i64, ptr, i32, i32, i32, i32, i32, i32, i32, i32, i32, i32, i32, i32, i32, i8, i8, i8, i8, i8, i32, ptr, ptr, ptr, ptr, ptr, i32, i32, i32, [84 x i8], [2640 x i8], [314 x i8], [72 x i8], [104 x i16], [9248 x i16], [4596 x i16], [144 x i16], i8, [32768 x i8] }

@position_slots = internal constant [11 x i32] [i32 30, i32 32, i32 34, i32 36, i32 38, i32 42, i32 50, i32 66, i32 98, i32 162, i32 290], align 16

; Function Attrs: nounwind uwtable
define internal void @lzxd_reset_state(ptr noundef %0) #0 {
  %2 = alloca ptr, align 8
  %3 = alloca i32, align 4
  store ptr %0, ptr %2, align 8
  %4 = load ptr, ptr %2, align 8
  %5 = getelementptr inbounds %struct.lzxd_stream, ptr %4, i32 0, i32 13
  store i32 1, ptr %5, align 4
  %6 = load ptr, ptr %2, align 8
  %7 = getelementptr inbounds %struct.lzxd_stream, ptr %6, i32 0, i32 14
  store i32 1, ptr %7, align 8
  %8 = load ptr, ptr %2, align 8
  %9 = getelementptr inbounds %struct.lzxd_stream, ptr %8, i32 0, i32 15
  store i32 1, ptr %9, align 4
  %10 = load ptr, ptr %2, align 8
  %11 = getelementptr inbounds %struct.lzxd_stream, ptr %10, i32 0, i32 21
  store i8 0, ptr %11, align 2
  %12 = load ptr, ptr %2, align 8
  %13 = getelementptr inbounds %struct.lzxd_stream, ptr %12, i32 0, i32 17
  store i32 0, ptr %13, align 4
  %14 = load ptr, ptr %2, align 8
  %15 = getelementptr inbounds %struct.lzxd_stream, ptr %14, i32 0, i32 20
  store i8 0, ptr %15, align 1
  store i32 0, ptr %3, align 4
  br label %16

16:                                               ; preds = %25, %1
  %17 = load i32, ptr %3, align 4
  %18 = icmp slt i32 %17, 2576
  br i1 %18, label %19, label %28

19:                                               ; preds = %16
  %20 = load ptr, ptr %2, align 8
  %21 = getelementptr inbounds %struct.lzxd_stream, ptr %20, i32 0, i32 34
  %22 = load i32, ptr %3, align 4
  %23 = sext i32 %22 to i64
  %24 = getelementptr inbounds [2640 x i8], ptr %21, i64 0, i64 %23
  store i8 0, ptr %24, align 1
  br label %25

25:                                               ; preds = %19
  %26 = load i32, ptr %3, align 4
  %27 = add nsw i32 %26, 1
  store i32 %27, ptr %3, align 4
  br label %16

28:                                               ; preds = %16
  store i32 0, ptr %3, align 4
  br label %29

29:                                               ; preds = %38, %28
  %30 = load i32, ptr %3, align 4
  %31 = icmp slt i32 %30, 250
  br i1 %31, label %32, label %41

32:                                               ; preds = %29
  %33 = load ptr, ptr %2, align 8
  %34 = getelementptr inbounds %struct.lzxd_stream, ptr %33, i32 0, i32 35
  %35 = load i32, ptr %3, align 4
  %36 = sext i32 %35 to i64
  %37 = getelementptr inbounds [314 x i8], ptr %34, i64 0, i64 %36
  store i8 0, ptr %37, align 1
  br label %38

38:                                               ; preds = %32
  %39 = load i32, ptr %3, align 4
  %40 = add nsw i32 %39, 1
  store i32 %40, ptr %3, align 4
  br label %29

41:                                               ; preds = %29
  ret void
}

; Function Attrs: nounwind uwtable
define ptr @lzxd_init(ptr noundef %0, ptr noundef %1, ptr noundef %2, i32 noundef %3, i32 noundef %4, i32 noundef %5, i64 noundef %6, i8 noundef signext %7) #0 {
  %9 = alloca ptr, align 8
  %10 = alloca ptr, align 8
  %11 = alloca ptr, align 8
  %12 = alloca ptr, align 8
  %13 = alloca i32, align 4
  %14 = alloca i32, align 4
  %15 = alloca i32, align 4
  %16 = alloca i64, align 8
  %17 = alloca i8, align 1
  %18 = alloca i32, align 4
  %19 = alloca ptr, align 8
  store ptr %0, ptr %10, align 8
  store ptr %1, ptr %11, align 8
  store ptr %2, ptr %12, align 8
  store i32 %3, ptr %13, align 4
  store i32 %4, ptr %14, align 4
  store i32 %5, ptr %15, align 4
  store i64 %6, ptr %16, align 8
  store i8 %7, ptr %17, align 1
  %20 = load i32, ptr %13, align 4
  %21 = shl i32 1, %20
  store i32 %21, ptr %18, align 4
  %22 = load ptr, ptr %10, align 8
  %23 = icmp ne ptr %22, null
  br i1 %23, label %25, label %24

24:                                               ; preds = %8
  store ptr null, ptr %9, align 8
  br label %190

25:                                               ; preds = %8
  %26 = load i8, ptr %17, align 1
  %27 = icmp ne i8 %26, 0
  br i1 %27, label %28, label %36

28:                                               ; preds = %25
  %29 = load i32, ptr %13, align 4
  %30 = icmp slt i32 %29, 17
  br i1 %30, label %34, label %31

31:                                               ; preds = %28
  %32 = load i32, ptr %13, align 4
  %33 = icmp sgt i32 %32, 25
  br i1 %33, label %34, label %35

34:                                               ; preds = %31, %28
  store ptr null, ptr %9, align 8
  br label %190

35:                                               ; preds = %31
  br label %44

36:                                               ; preds = %25
  %37 = load i32, ptr %13, align 4
  %38 = icmp slt i32 %37, 15
  br i1 %38, label %42, label %39

39:                                               ; preds = %36
  %40 = load i32, ptr %13, align 4
  %41 = icmp sgt i32 %40, 21
  br i1 %41, label %42, label %43

42:                                               ; preds = %39, %36
  store ptr null, ptr %9, align 8
  br label %190

43:                                               ; preds = %39
  br label %44

44:                                               ; preds = %43, %35
  %45 = load i32, ptr %14, align 4
  %46 = icmp slt i32 %45, 0
  br i1 %46, label %50, label %47

47:                                               ; preds = %44
  %48 = load i64, ptr %16, align 8
  %49 = icmp slt i64 %48, 0
  br i1 %49, label %50, label %51

50:                                               ; preds = %47, %44
  store ptr null, ptr %9, align 8
  br label %190

51:                                               ; preds = %47
  %52 = load i32, ptr %15, align 4
  %53 = add nsw i32 %52, 1
  %54 = and i32 %53, -2
  store i32 %54, ptr %15, align 4
  %55 = load i32, ptr %15, align 4
  %56 = icmp slt i32 %55, 2
  br i1 %56, label %57, label %58

57:                                               ; preds = %51
  store ptr null, ptr %9, align 8
  br label %190

58:                                               ; preds = %51
  %59 = load ptr, ptr %10, align 8
  %60 = getelementptr inbounds %struct.mspack_system, ptr %59, i32 0, i32 7
  %61 = load ptr, ptr %60, align 8
  %62 = load ptr, ptr %10, align 8
  %63 = call ptr %61(ptr noundef %62, i64 noundef 64232)
  store ptr %63, ptr %19, align 8
  %64 = icmp ne ptr %63, null
  br i1 %64, label %66, label %65

65:                                               ; preds = %58
  store ptr null, ptr %9, align 8
  br label %190

66:                                               ; preds = %58
  %67 = load ptr, ptr %10, align 8
  %68 = getelementptr inbounds %struct.mspack_system, ptr %67, i32 0, i32 7
  %69 = load ptr, ptr %68, align 8
  %70 = load ptr, ptr %10, align 8
  %71 = load i32, ptr %18, align 4
  %72 = zext i32 %71 to i64
  %73 = call ptr %69(ptr noundef %70, i64 noundef %72)
  %74 = load ptr, ptr %19, align 8
  %75 = getelementptr inbounds %struct.lzxd_stream, ptr %74, i32 0, i32 5
  store ptr %73, ptr %75, align 8
  %76 = load ptr, ptr %10, align 8
  %77 = getelementptr inbounds %struct.mspack_system, ptr %76, i32 0, i32 7
  %78 = load ptr, ptr %77, align 8
  %79 = load ptr, ptr %10, align 8
  %80 = load i32, ptr %15, align 4
  %81 = sext i32 %80 to i64
  %82 = call ptr %78(ptr noundef %79, i64 noundef %81)
  %83 = load ptr, ptr %19, align 8
  %84 = getelementptr inbounds %struct.lzxd_stream, ptr %83, i32 0, i32 25
  store ptr %82, ptr %84, align 8
  %85 = load ptr, ptr %19, align 8
  %86 = getelementptr inbounds %struct.lzxd_stream, ptr %85, i32 0, i32 5
  %87 = load ptr, ptr %86, align 8
  %88 = icmp ne ptr %87, null
  br i1 %88, label %89, label %94

89:                                               ; preds = %66
  %90 = load ptr, ptr %19, align 8
  %91 = getelementptr inbounds %struct.lzxd_stream, ptr %90, i32 0, i32 25
  %92 = load ptr, ptr %91, align 8
  %93 = icmp ne ptr %92, null
  br i1 %93, label %111, label %94

94:                                               ; preds = %89, %66
  %95 = load ptr, ptr %10, align 8
  %96 = getelementptr inbounds %struct.mspack_system, ptr %95, i32 0, i32 8
  %97 = load ptr, ptr %96, align 8
  %98 = load ptr, ptr %19, align 8
  %99 = getelementptr inbounds %struct.lzxd_stream, ptr %98, i32 0, i32 5
  %100 = load ptr, ptr %99, align 8
  call void %97(ptr noundef %100)
  %101 = load ptr, ptr %10, align 8
  %102 = getelementptr inbounds %struct.mspack_system, ptr %101, i32 0, i32 8
  %103 = load ptr, ptr %102, align 8
  %104 = load ptr, ptr %19, align 8
  %105 = getelementptr inbounds %struct.lzxd_stream, ptr %104, i32 0, i32 25
  %106 = load ptr, ptr %105, align 8
  call void %103(ptr noundef %106)
  %107 = load ptr, ptr %10, align 8
  %108 = getelementptr inbounds %struct.mspack_system, ptr %107, i32 0, i32 8
  %109 = load ptr, ptr %108, align 8
  %110 = load ptr, ptr %19, align 8
  call void %109(ptr noundef %110)
  store ptr null, ptr %9, align 8
  br label %190

111:                                              ; preds = %89
  %112 = load ptr, ptr %10, align 8
  %113 = load ptr, ptr %19, align 8
  %114 = getelementptr inbounds %struct.lzxd_stream, ptr %113, i32 0, i32 0
  store ptr %112, ptr %114, align 8
  %115 = load ptr, ptr %11, align 8
  %116 = load ptr, ptr %19, align 8
  %117 = getelementptr inbounds %struct.lzxd_stream, ptr %116, i32 0, i32 1
  store ptr %115, ptr %117, align 8
  %118 = load ptr, ptr %12, align 8
  %119 = load ptr, ptr %19, align 8
  %120 = getelementptr inbounds %struct.lzxd_stream, ptr %119, i32 0, i32 2
  store ptr %118, ptr %120, align 8
  %121 = load ptr, ptr %19, align 8
  %122 = getelementptr inbounds %struct.lzxd_stream, ptr %121, i32 0, i32 3
  store i64 0, ptr %122, align 8
  %123 = load i64, ptr %16, align 8
  %124 = load ptr, ptr %19, align 8
  %125 = getelementptr inbounds %struct.lzxd_stream, ptr %124, i32 0, i32 4
  store i64 %123, ptr %125, align 8
  %126 = load i32, ptr %15, align 4
  %127 = load ptr, ptr %19, align 8
  %128 = getelementptr inbounds %struct.lzxd_stream, ptr %127, i32 0, i32 32
  store i32 %126, ptr %128, align 8
  %129 = load i32, ptr %13, align 4
  %130 = shl i32 1, %129
  %131 = load ptr, ptr %19, align 8
  %132 = getelementptr inbounds %struct.lzxd_stream, ptr %131, i32 0, i32 6
  store i32 %130, ptr %132, align 8
  %133 = load ptr, ptr %19, align 8
  %134 = getelementptr inbounds %struct.lzxd_stream, ptr %133, i32 0, i32 7
  store i32 0, ptr %134, align 4
  %135 = load ptr, ptr %19, align 8
  %136 = getelementptr inbounds %struct.lzxd_stream, ptr %135, i32 0, i32 9
  store i32 0, ptr %136, align 4
  %137 = load ptr, ptr %19, align 8
  %138 = getelementptr inbounds %struct.lzxd_stream, ptr %137, i32 0, i32 10
  store i32 0, ptr %138, align 8
  %139 = load ptr, ptr %19, align 8
  %140 = getelementptr inbounds %struct.lzxd_stream, ptr %139, i32 0, i32 11
  store i32 0, ptr %140, align 4
  %141 = load i32, ptr %14, align 4
  %142 = load ptr, ptr %19, align 8
  %143 = getelementptr inbounds %struct.lzxd_stream, ptr %142, i32 0, i32 12
  store i32 %141, ptr %143, align 8
  %144 = load ptr, ptr %19, align 8
  %145 = getelementptr inbounds %struct.lzxd_stream, ptr %144, i32 0, i32 18
  store i32 0, ptr %145, align 8
  %146 = load ptr, ptr %19, align 8
  %147 = getelementptr inbounds %struct.lzxd_stream, ptr %146, i32 0, i32 19
  store i8 0, ptr %147, align 4
  %148 = load ptr, ptr %19, align 8
  %149 = getelementptr inbounds %struct.lzxd_stream, ptr %148, i32 0, i32 24
  store i32 0, ptr %149, align 4
  %150 = load i32, ptr %13, align 4
  %151 = sub nsw i32 %150, 15
  %152 = sext i32 %151 to i64
  %153 = getelementptr inbounds [11 x i32], ptr @position_slots, i64 0, i64 %152
  %154 = load i32, ptr %153, align 4
  %155 = shl i32 %154, 3
  %156 = load ptr, ptr %19, align 8
  %157 = getelementptr inbounds %struct.lzxd_stream, ptr %156, i32 0, i32 8
  store i32 %155, ptr %157, align 8
  %158 = load i8, ptr %17, align 1
  %159 = load ptr, ptr %19, align 8
  %160 = getelementptr inbounds %struct.lzxd_stream, ptr %159, i32 0, i32 23
  store i8 %158, ptr %160, align 8
  %161 = load ptr, ptr %19, align 8
  %162 = getelementptr inbounds %struct.lzxd_stream, ptr %161, i32 0, i32 42
  %163 = getelementptr inbounds [32768 x i8], ptr %162, i64 0, i64 0
  %164 = load ptr, ptr %19, align 8
  %165 = getelementptr inbounds %struct.lzxd_stream, ptr %164, i32 0, i32 29
  store ptr %163, ptr %165, align 8
  %166 = load ptr, ptr %19, align 8
  %167 = getelementptr inbounds %struct.lzxd_stream, ptr %166, i32 0, i32 28
  store ptr %163, ptr %167, align 8
  %168 = load ptr, ptr %19, align 8
  call void @lzxd_reset_state(ptr noundef %168)
  br label %169

169:                                              ; preds = %111
  %170 = load ptr, ptr %19, align 8
  %171 = getelementptr inbounds %struct.lzxd_stream, ptr %170, i32 0, i32 25
  %172 = load ptr, ptr %171, align 8
  %173 = getelementptr inbounds i8, ptr %172, i64 0
  %174 = load ptr, ptr %19, align 8
  %175 = getelementptr inbounds %struct.lzxd_stream, ptr %174, i32 0, i32 26
  store ptr %173, ptr %175, align 8
  %176 = load ptr, ptr %19, align 8
  %177 = getelementptr inbounds %struct.lzxd_stream, ptr %176, i32 0, i32 25
  %178 = load ptr, ptr %177, align 8
  %179 = getelementptr inbounds i8, ptr %178, i64 0
  %180 = load ptr, ptr %19, align 8
  %181 = getelementptr inbounds %struct.lzxd_stream, ptr %180, i32 0, i32 27
  store ptr %179, ptr %181, align 8
  %182 = load ptr, ptr %19, align 8
  %183 = getelementptr inbounds %struct.lzxd_stream, ptr %182, i32 0, i32 30
  store i32 0, ptr %183, align 8
  %184 = load ptr, ptr %19, align 8
  %185 = getelementptr inbounds %struct.lzxd_stream, ptr %184, i32 0, i32 31
  store i32 0, ptr %185, align 4
  %186 = load ptr, ptr %19, align 8
  %187 = getelementptr inbounds %struct.lzxd_stream, ptr %186, i32 0, i32 22
  store i8 0, ptr %187, align 1
  br label %188

188:                                              ; preds = %169
  %189 = load ptr, ptr %19, align 8
  store ptr %189, ptr %9, align 8
  br label %190

190:                                              ; preds = %188, %94, %65, %57, %50, %42, %34, %24
  %191 = load ptr, ptr %9, align 8
  ret ptr %191
}