; Function Attrs: nounwind uwtable
define ptr @lzxd_init(ptr noundef %0, ptr noundef %1, ptr noundef %2, i32 noundef %3, i32 noundef %4, i32 noundef %5, i64 noundef %6, i8 noundef signext %7) local_unnamed_addr #0 {
  %9 = shl nuw i32 1, %3
  %.not = icmp eq ptr %0, null
  br i1 %.not, label %80, label %10

10:                                               ; preds = %8
  %.not77 = icmp eq i8 %7, 0
  br i1 %.not77, label %13, label %11

11:                                               ; preds = %10
  %12 = add i32 %3, -26
  %or.cond = icmp ult i32 %12, -9
  br i1 %or.cond, label %80, label %15

13:                                               ; preds = %10
  %14 = add i32 %3, -22
  %or.cond3 = icmp ult i32 %14, -7
  br i1 %or.cond3, label %80, label %15

15:                                               ; preds = %13, %11
  %16 = icmp slt i32 %4, 0
  %17 = icmp slt i64 %6, 0
  %or.cond5 = or i1 %16, %17
  br i1 %or.cond5, label %80, label %18

18:                                               ; preds = %15
  %19 = add nsw i32 %5, 1
  %20 = and i32 %19, -2
  %21 = icmp slt i32 %20, 2
  br i1 %21, label %80, label %22

22:                                               ; preds = %18
  %23 = getelementptr inbounds i8, ptr %0, i64 56
  %24 = load ptr, ptr %23, align 8
  %25 = tail call ptr %24(ptr noundef nonnull %0, i64 noundef 64232) #5
  %.not78 = icmp eq ptr %25, null
  br i1 %.not78, label %80, label %26

26:                                               ; preds = %22
  %27 = load ptr, ptr %23, align 8
  %28 = zext i32 %9 to i64
  %29 = tail call ptr %27(ptr noundef nonnull %0, i64 noundef %28) #5
  %30 = getelementptr inbounds i8, ptr %25, i64 40
  store ptr %29, ptr %30, align 8
  %31 = load ptr, ptr %23, align 8
  %32 = zext nneg i32 %20 to i64
  %33 = tail call ptr %31(ptr noundef nonnull %0, i64 noundef %32) #5
  %34 = getelementptr inbounds i8, ptr %25, i64 112
  store ptr %33, ptr %34, align 8
  %35 = load ptr, ptr %30, align 8
  %.not79 = icmp eq ptr %35, null
  %.not80 = icmp eq ptr %33, null
  %or.cond81 = select i1 %.not79, i1 true, i1 %.not80
  br i1 %or.cond81, label %36, label %42

36:                                               ; preds = %26
  %37 = getelementptr inbounds i8, ptr %0, i64 64
  %38 = load ptr, ptr %37, align 8
  tail call void %38(ptr noundef %35) #5
  %39 = load ptr, ptr %37, align 8
  %40 = load ptr, ptr %34, align 8
  tail call void %39(ptr noundef %40) #5
  %41 = load ptr, ptr %37, align 8
  tail call void %41(ptr noundef nonnull %25) #5
  br label %80

42:                                               ; preds = %26
  store ptr %0, ptr %25, align 8
  %43 = getelementptr inbounds i8, ptr %25, i64 8
  store ptr %1, ptr %43, align 8
  %44 = getelementptr inbounds i8, ptr %25, i64 16
  store ptr %2, ptr %44, align 8
  %45 = getelementptr inbounds i8, ptr %25, i64 24
  store i64 0, ptr %45, align 8
  %46 = getelementptr inbounds i8, ptr %25, i64 32
  store i64 %6, ptr %46, align 8
  %47 = getelementptr inbounds i8, ptr %25, i64 160
  store i32 %20, ptr %47, align 8
  %48 = getelementptr inbounds i8, ptr %25, i64 48
  store i32 %9, ptr %48, align 8
  %49 = getelementptr inbounds i8, ptr %25, i64 52
  store i32 0, ptr %49, align 4
  %50 = getelementptr inbounds i8, ptr %25, i64 60
  store i32 0, ptr %50, align 4
  %51 = getelementptr inbounds i8, ptr %25, i64 64
  store i32 0, ptr %51, align 8
  %52 = getelementptr inbounds i8, ptr %25, i64 68
  store i32 0, ptr %52, align 4
  %53 = getelementptr inbounds i8, ptr %25, i64 72
  store i32 %4, ptr %53, align 8
  %54 = getelementptr inbounds i8, ptr %25, i64 96
  store i32 0, ptr %54, align 8
  %55 = getelementptr inbounds i8, ptr %25, i64 100
  store i8 0, ptr %55, align 4
  %56 = getelementptr inbounds i8, ptr %25, i64 108
  store i32 0, ptr %56, align 4
  %57 = add nsw i32 %3, -15
  %58 = zext nneg i32 %57 to i64
  %59 = getelementptr inbounds [11 x i32], ptr @position_slots, i64 0, i64 %58
  %60 = load i32, ptr %59, align 4
  %61 = shl i32 %60, 3
  %62 = getelementptr inbounds i8, ptr %25, i64 56
  store i32 %61, ptr %62, align 8
  %63 = getelementptr inbounds i8, ptr %25, i64 104
  store i8 %7, ptr %63, align 8
  %64 = getelementptr inbounds i8, ptr %25, i64 31459
  %65 = getelementptr inbounds i8, ptr %25, i64 144
  store ptr %64, ptr %65, align 8
  %66 = getelementptr inbounds i8, ptr %25, i64 136
  store ptr %64, ptr %66, align 8
  %67 = getelementptr inbounds i8, ptr %25, i64 76
  store i32 1, ptr %67, align 4
  %68 = getelementptr inbounds i8, ptr %25, i64 80
  store i32 1, ptr %68, align 8
  %69 = getelementptr inbounds i8, ptr %25, i64 84
  store i32 1, ptr %69, align 4
  %70 = getelementptr inbounds i8, ptr %25, i64 102
  store i8 0, ptr %70, align 2
  %71 = getelementptr inbounds i8, ptr %25, i64 92
  store i32 0, ptr %71, align 4
  %72 = getelementptr inbounds i8, ptr %25, i64 101
  store i8 0, ptr %72, align 1
  %73 = getelementptr inbounds i8, ptr %25, i64 248
  tail call void @llvm.memset.p0.i64(ptr noundef nonnull align 1 dereferenceable(2576) %73, i8 0, i64 2576, i1 false)
  %74 = getelementptr inbounds i8, ptr %25, i64 2888
  tail call void @llvm.memset.p0.i64(ptr noundef nonnull align 1 dereferenceable(250) %74, i8 0, i64 250, i1 false)
  %75 = getelementptr inbounds i8, ptr %25, i64 120
  store ptr %33, ptr %75, align 8
  %76 = getelementptr inbounds i8, ptr %25, i64 128
  store ptr %33, ptr %76, align 8
  %77 = getelementptr inbounds i8, ptr %25, i64 152
  store i32 0, ptr %77, align 8
  %78 = getelementptr inbounds i8, ptr %25, i64 156
  store i32 0, ptr %78, align 4
  %79 = getelementptr inbounds i8, ptr %25, i64 103
  store i8 0, ptr %79, align 1
  br label %80

80:                                               ; preds = %22, %18, %15, %13, %11, %8, %42, %36
  %.0 = phi ptr [ %25, %42 ], [ null, %36 ], [ null, %8 ], [ null, %11 ], [ null, %13 ], [ null, %15 ], [ null, %18 ], [ null, %22 ]
  ret ptr %.0
}